target datalayout = "e-m:e-p270:32:32-p271:32:32-p272:64:64-i64:64-i128:128-f80:128-n8:16:32:64-S128"
target triple = "x86_64-pc-linux-gnu"

%"class.ceres::internal::ContextImpl" = type <{ %"class.ceres::Context", %"class.ceres::internal::ThreadPool", ptr, ptr, [2 x ptr], ptr, i8, [3 x i8], i32, %struct.cudaDeviceProp, i8, [3 x i8], i32, i32, [4 x i8] }>
%"class.ceres::Context" = type { ptr }
%"class.ceres::internal::ThreadPool" = type { %"class.ceres::internal::ConcurrentQueue", %"class.std::vector", %"class.std::mutex" }
%"class.ceres::internal::ConcurrentQueue" = type <{ %"class.std::mutex", %"class.std::condition_variable", %"class.std::queue", i8, [7 x i8] }>
%"class.std::condition_variable" = type { %"class.std::__condvar" }
%"class.std::__condvar" = type { %union.pthread_cond_t }
%union.pthread_cond_t = type { %struct.__pthread_cond_s }
%struct.__pthread_cond_s = type { %union.__atomic_wide_counter, %union.__atomic_wide_counter, [2 x i32], [2 x i32], i32, i32, [2 x i32] }
%union.__atomic_wide_counter = type { i64 }
%"class.std::queue" = type { %"class.std::deque" }
%"class.std::deque" = type { %"class.std::_Deque_base" }
%"class.std::_Deque_base" = type { %"struct.std::_Deque_base<std::function<void ()>, std::allocator<std::function<void ()>>>::_Deque_impl" }
%"struct.std::_Deque_base<std::function<void ()>, std::allocator<std::function<void ()>>>::_Deque_impl" = type { %"struct.std::_Deque_base<std::function<void ()>, std::allocator<std::function<void ()>>>::_Deque_impl_data" }
%"struct.std::_Deque_base<std::function<void ()>, std::allocator<std::function<void ()>>>::_Deque_impl_data" = type { ptr, i64, %"struct.std::_Deque_iterator", %"struct.std::_Deque_iterator" }
%"struct.std::_Deque_iterator" = type { ptr, ptr, ptr, ptr }
%"class.std::vector" = type { %"struct.std::_Vector_base" }
%"struct.std::_Vector_base" = type { %"struct.std::_Vector_base<std::thread, std::allocator<std::thread>>::_Vector_impl" }
%"struct.std::_Vector_base<std::thread, std::allocator<std::thread>>::_Vector_impl" = type { %"struct.std::_Vector_base<std::thread, std::allocator<std::thread>>::_Vector_impl_data" }
%"struct.std::_Vector_base<std::thread, std::allocator<std::thread>>::_Vector_impl_data" = type { ptr, ptr, ptr }
%"class.std::mutex" = type { %"class.std::__mutex_base" }
%"class.std::__mutex_base" = type { %union.pthread_mutex_t }
%union.pthread_mutex_t = type { %struct.__pthread_mutex_s }
%struct.__pthread_mutex_s = type { i32, i32, i32, i32, i32, i16, i16, %struct.__pthread_internal_list }
%struct.__pthread_internal_list = type { ptr, ptr }
%struct.cudaDeviceProp = type { [256 x i8], %struct.CUuuid_st, [8 x i8], i32, i64, i64, i32, i32, i64, i32, [3 x i32], [3 x i32], i32, i64, i32, i32, i64, i64, i32, i32, i32, i32, i32, i32, i32, i32, i32, [2 x i32], [2 x i32], [3 x i32], [2 x i32], [3 x i32], [3 x i32], i32, [2 x i32], [3 x i32], [2 x i32], i32, [2 x i32], [3 x i32], [2 x i32], [3 x i32], i32, [2 x i32], i64, i32, i32, i32, i32, i32, i32, i32, i32, i32, i32, i32, i32, i32, i32, i32, i32, i64, i32, i32, i32, i32, i32, i32, i32, i32, i32, i32, i32, i32, i64, i32, i32, i32, i32, i64 }
%struct.CUuuid_st = type { [16 x i8] }

@_ZTVN5ceres8internal11ContextImplE = hidden unnamed_addr constant { [4 x ptr] } { [4 x ptr] [ptr null, ptr @_ZTIN5ceres8internal11ContextImplE, ptr @_ZN5ceres8internal11ContextImplD1Ev, ptr @_ZN5ceres8internal11ContextImplD0Ev] }, align 8

; Function Attrs: mustprogress uwtable
define hidden void @_ZN5ceres8internal11ContextImplC2Ev(ptr noundef nonnull align 8 dereferenceable(1040) %0) unnamed_addr #0 align 2 personality ptr @__gxx_personality_v0 {
  %2 = alloca ptr, align 8
  %3 = alloca ptr, align 8
  %4 = alloca i32, align 4
  store ptr %0, ptr %2, align 8
  %5 = load ptr, ptr %2, align 8
  call void @_ZN5ceres7ContextC2Ev(ptr noundef nonnull align 8 dereferenceable(8) %5)
  store ptr getelementptr inbounds ({ [4 x ptr] }, ptr @_ZTVN5ceres8internal11ContextImplE, i32 0, i32 0, i32 2), ptr %5, align 8
  %6 = getelementptr inbounds %"class.ceres::internal::ContextImpl", ptr %5, i32 0, i32 1
  invoke void @_ZN5ceres8internal10ThreadPoolC1Ev(ptr noundef nonnull align 8 dereferenceable(240) %6)
          to label %7 unwind label %25

7:                                                ; preds = %1
  %8 = getelementptr inbounds %"class.ceres::internal::ContextImpl", ptr %5, i32 0, i32 2
  store ptr null, ptr %8, align 8
  %9 = getelementptr inbounds %"class.ceres::internal::ContextImpl", ptr %5, i32 0, i32 3
  store ptr null, ptr %9, align 8
  %10 = getelementptr inbounds %"class.ceres::internal::ContextImpl", ptr %5, i32 0, i32 4
  %11 = getelementptr inbounds [2 x ptr], ptr %10, i64 0, i64 0
  store ptr null, ptr %11, align 8
  %12 = getelementptr inbounds ptr, ptr %11, i64 1
  %13 = getelementptr inbounds ptr, ptr %11, i64 2
  br label %14

14:                                               ; preds = %14, %7
  %15 = phi ptr [ %12, %7 ], [ %16, %14 ]
  store ptr null, ptr %15, align 8
  %16 = getelementptr inbounds ptr, ptr %15, i64 1
  %17 = icmp eq ptr %16, %13
  br i1 %17, label %18, label %14

18:                                               ; preds = %14
  %19 = getelementptr inbounds %"class.ceres::internal::ContextImpl", ptr %5, i32 0, i32 5
  store ptr null, ptr %19, align 8
  %20 = getelementptr inbounds %"class.ceres::internal::ContextImpl", ptr %5, i32 0, i32 6
  store i8 0, ptr %20, align 8
  %21 = getelementptr inbounds %"class.ceres::internal::ContextImpl", ptr %5, i32 0, i32 8
  store i32 -1, ptr %21, align 4
  %22 = getelementptr inbounds %"class.ceres::internal::ContextImpl", ptr %5, i32 0, i32 10
  store i8 0, ptr %22, align 8
  %23 = getelementptr inbounds %"class.ceres::internal::ContextImpl", ptr %5, i32 0, i32 12
  store i32 0, ptr %23, align 4
  %24 = getelementptr inbounds %"class.ceres::internal::ContextImpl", ptr %5, i32 0, i32 13
  store i32 0, ptr %24, align 8
  ret void

25:                                               ; preds = %1
  %26 = landingpad { ptr, i32 }
          cleanup
  %27 = extractvalue { ptr, i32 } %26, 0
  store ptr %27, ptr %3, align 8
  %28 = extractvalue { ptr, i32 } %26, 1
  store i32 %28, ptr %4, align 4
  call void @_ZN5ceres7ContextD2Ev(ptr noundef nonnull align 8 dereferenceable(8) %5) #8
  br label %29

29:                                               ; preds = %25
  %30 = load ptr, ptr %3, align 8
  %31 = load i32, ptr %4, align 4
  %32 = insertvalue { ptr, i32 } poison, ptr %30, 0
  %33 = insertvalue { ptr, i32 } %32, i32 %31, 1
  resume { ptr, i32 } %33
}