; Function Attrs: mustprogress uwtable
define hidden void @_ZN5ceres8internal11ContextImplC2Ev(ptr noundef nonnull align 8 dereferenceable(1040) %0) unnamed_addr #0 align 2 personality ptr @__gxx_personality_v0 {
  tail call void @_ZN5ceres7ContextC2Ev(ptr noundef nonnull align 8 dereferenceable(8) %0)
  store ptr getelementptr inbounds ({ [4 x ptr] }, ptr @_ZTVN5ceres8internal11ContextImplE, i64 0, i32 0, i64 2), ptr %0, align 8
  %2 = getelementptr inbounds i8, ptr %0, i64 8
  invoke void @_ZN5ceres8internal10ThreadPoolC1Ev(ptr noundef nonnull align 8 dereferenceable(240) %2)
          to label %3 unwind label %9

3:                                                ; preds = %1
  %4 = getelementptr inbounds i8, ptr %0, i64 248
  %5 = getelementptr inbounds i8, ptr %0, i64 292
  tail call void @llvm.memset.p0.i64(ptr noundef nonnull align 8 dereferenceable(41) %4, i8 0, i64 41, i1 false)
  store i32 -1, ptr %5, align 4
  %6 = getelementptr inbounds i8, ptr %0, i64 1024
  store i8 0, ptr %6, align 8
  %7 = getelementptr inbounds i8, ptr %0, i64 1028
  store i32 0, ptr %7, align 4
  %8 = getelementptr inbounds i8, ptr %0, i64 1032
  store i32 0, ptr %8, align 8
  ret void

9:                                                ; preds = %1
  %10 = landingpad { ptr, i32 }
          cleanup
  tail call void @_ZN5ceres7ContextD2Ev(ptr noundef nonnull align 8 dereferenceable(8) %0) #11
  resume { ptr, i32 } %10
}